; Function Attrs: nounwind uwtable
define ptr @l_Lean_Loop_forIn_loop___rarg___lambda__1(ptr noundef %0, ptr noundef %1, ptr noundef %2) #1 {
  %4 = ptrtoint ptr %2 to i64
  %5 = and i64 %4, 1
  %.not.i37 = icmp eq i64 %5, 0
  br i1 %.not.i37, label %9, label %6

6:                                                ; preds = %3
  %7 = lshr i64 %4, 1
  %8 = trunc i64 %7 to i32
  br label %lean_obj_tag.exit

9:                                                ; preds = %3
  %10 = getelementptr i8, ptr %2, i64 4
  %.val.i = load i32, ptr %10, align 4
  %11 = lshr i32 %.val.i, 24
  br label %lean_obj_tag.exit

lean_obj_tag.exit:                                ; preds = %6, %9
  %.0.i = phi i32 [ %8, %6 ], [ %11, %9 ]
  %12 = icmp eq i32 %.0.i, 0
  br i1 %12, label %13, label %77

13:                                               ; preds = %lean_obj_tag.exit
  %14 = ptrtoint ptr %1 to i64
  %15 = and i64 %14, 1
  %.not50 = icmp eq i64 %15, 0
  br i1 %.not50, label %16, label %lean_dec.exit25

16:                                               ; preds = %13
  %17 = load i32, ptr %1, align 4, !tbaa !4
  %18 = icmp sgt i32 %17, 1
  br i1 %18, label %19, label %21, !prof !9

19:                                               ; preds = %16
  %20 = add nsw i32 %17, -1
  store i32 %20, ptr %1, align 4, !tbaa !4
  br label %lean_dec.exit25

21:                                               ; preds = %16
  %.not.i = icmp eq i32 %17, 0
  br i1 %.not.i, label %lean_dec.exit25, label %22

22:                                               ; preds = %21
  tail call void @lean_dec_ref_cold(ptr noundef nonnull %1) #5
  br label %lean_dec.exit25

lean_dec.exit25:                                  ; preds = %22, %21, %19, %13
  %23 = getelementptr inbounds nuw i8, ptr %2, i64 8
  %24 = load ptr, ptr %23, align 8, !tbaa !10
  %25 = ptrtoint ptr %24 to i64
  %26 = and i64 %25, 1
  %.not51 = icmp eq i64 %26, 0
  br i1 %.not51, label %27, label %lean_inc.exit28

27:                                               ; preds = %lean_dec.exit25
  %.val.i38 = load i32, ptr %24, align 4, !tbaa !4
  %28 = icmp sgt i32 %.val.i38, 0
  br i1 %28, label %29, label %31, !prof !9

29:                                               ; preds = %27
  %30 = add nuw i32 %.val.i38, 1
  store i32 %30, ptr %24, align 4, !tbaa !4
  br label %lean_inc.exit28

31:                                               ; preds = %27
  %.not.i39 = icmp eq i32 %.val.i38, 0
  br i1 %.not.i39, label %lean_inc.exit28, label %32

32:                                               ; preds = %31
  tail call void @lean_inc_ref_cold(ptr noundef nonnull %24) #5
  br label %lean_inc.exit28

lean_inc.exit28:                                  ; preds = %32, %31, %29, %lean_dec.exit25
  br i1 %.not.i37, label %33, label %lean_dec.exit24

33:                                               ; preds = %lean_inc.exit28
  %34 = load i32, ptr %2, align 4, !tbaa !4
  %35 = icmp sgt i32 %34, 1
  br i1 %35, label %36, label %38, !prof !9

36:                                               ; preds = %33
  %37 = add nsw i32 %34, -1
  store i32 %37, ptr %2, align 4, !tbaa !4
  br label %lean_dec.exit24

38:                                               ; preds = %33
  %.not.i29 = icmp eq i32 %34, 0
  br i1 %.not.i29, label %lean_dec.exit24, label %39

39:                                               ; preds = %38
  tail call void @lean_dec_ref_cold(ptr noundef nonnull %2) #5
  br label %lean_dec.exit24

lean_dec.exit24:                                  ; preds = %39, %38, %36, %lean_inc.exit28
  %40 = getelementptr inbounds nuw i8, ptr %0, i64 8
  %41 = load ptr, ptr %40, align 8, !tbaa !10
  %42 = ptrtoint ptr %41 to i64
  %43 = and i64 %42, 1
  %.not53 = icmp eq i64 %43, 0
  br i1 %.not53, label %44, label %lean_inc.exit27

44:                                               ; preds = %lean_dec.exit24
  %.val.i40 = load i32, ptr %41, align 4, !tbaa !4
  %45 = icmp sgt i32 %.val.i40, 0
  br i1 %45, label %46, label %48, !prof !9

46:                                               ; preds = %44
  %47 = add nuw i32 %.val.i40, 1
  store i32 %47, ptr %41, align 4, !tbaa !4
  br label %lean_inc.exit27

48:                                               ; preds = %44
  %.not.i41 = icmp eq i32 %.val.i40, 0
  br i1 %.not.i41, label %lean_inc.exit27, label %49

49:                                               ; preds = %48
  tail call void @lean_inc_ref_cold(ptr noundef nonnull %41) #5
  br label %lean_inc.exit27

lean_inc.exit27:                                  ; preds = %49, %48, %46, %lean_dec.exit24
  %50 = ptrtoint ptr %0 to i64
  %51 = and i64 %50, 1
  %.not54 = icmp eq i64 %51, 0
  br i1 %.not54, label %52, label %lean_dec.exit23

52:                                               ; preds = %lean_inc.exit27
  %53 = load i32, ptr %0, align 4, !tbaa !4
  %54 = icmp sgt i32 %53, 1
  br i1 %54, label %55, label %57, !prof !9

55:                                               ; preds = %52
  %56 = add nsw i32 %53, -1
  store i32 %56, ptr %0, align 4, !tbaa !4
  br label %lean_dec.exit23

57:                                               ; preds = %52
  %.not.i31 = icmp eq i32 %53, 0
  br i1 %.not.i31, label %lean_dec.exit23, label %58

58:                                               ; preds = %57
  tail call void @lean_dec_ref_cold(ptr noundef nonnull %0) #5
  br label %lean_dec.exit23

lean_dec.exit23:                                  ; preds = %58, %57, %55, %lean_inc.exit27
  %59 = getelementptr inbounds nuw i8, ptr %41, i64 16
  %60 = load ptr, ptr %59, align 8, !tbaa !10
  %61 = ptrtoint ptr %60 to i64
  %62 = and i64 %61, 1
  %.not55 = icmp eq i64 %62, 0
  br i1 %.not55, label %63, label %lean_inc.exit26

63:                                               ; preds = %lean_dec.exit23
  %.val.i43 = load i32, ptr %60, align 4, !tbaa !4
  %64 = icmp sgt i32 %.val.i43, 0
  br i1 %64, label %65, label %67, !prof !9

65:                                               ; preds = %63
  %66 = add nuw i32 %.val.i43, 1
  store i32 %66, ptr %60, align 4, !tbaa !4
  br label %lean_inc.exit26

67:                                               ; preds = %63
  %.not.i44 = icmp eq i32 %.val.i43, 0
  br i1 %.not.i44, label %lean_inc.exit26, label %68

68:                                               ; preds = %67
  tail call void @lean_inc_ref_cold(ptr noundef nonnull %60) #5
  br label %lean_inc.exit26

lean_inc.exit26:                                  ; preds = %68, %67, %65, %lean_dec.exit23
  br i1 %.not53, label %69, label %lean_dec.exit22

69:                                               ; preds = %lean_inc.exit26
  %70 = load i32, ptr %41, align 4, !tbaa !4
  %71 = icmp sgt i32 %70, 1
  br i1 %71, label %72, label %74, !prof !9

72:                                               ; preds = %69
  %73 = add nsw i32 %70, -1
  store i32 %73, ptr %41, align 4, !tbaa !4
  br label %lean_dec.exit22

74:                                               ; preds = %69
  %.not.i33 = icmp eq i32 %70, 0
  br i1 %.not.i33, label %lean_dec.exit22, label %75

75:                                               ; preds = %74
  tail call void @lean_dec_ref_cold(ptr noundef nonnull %41) #5
  br label %lean_dec.exit22

lean_dec.exit22:                                  ; preds = %75, %74, %72, %lean_inc.exit26
  %76 = tail call ptr @lean_apply_2(ptr noundef %60, ptr noundef nonnull inttoptr (i64 1 to ptr), ptr noundef %24) #5
  br label %96

77:                                               ; preds = %lean_obj_tag.exit
  %78 = getelementptr inbounds nuw i8, ptr %2, i64 8
  %79 = load ptr, ptr %78, align 8, !tbaa !10
  %80 = ptrtoint ptr %79 to i64
  %81 = and i64 %80, 1
  %.not = icmp eq i64 %81, 0
  br i1 %.not, label %82, label %lean_inc.exit

82:                                               ; preds = %77
  %.val.i46 = load i32, ptr %79, align 4, !tbaa !4
  %83 = icmp sgt i32 %.val.i46, 0
  br i1 %83, label %84, label %86, !prof !9

84:                                               ; preds = %82
  %85 = add nuw i32 %.val.i46, 1
  store i32 %85, ptr %79, align 4, !tbaa !4
  br label %lean_inc.exit

86:                                               ; preds = %82
  %.not.i47 = icmp eq i32 %.val.i46, 0
  br i1 %.not.i47, label %lean_inc.exit, label %87

87:                                               ; preds = %86
  tail call void @lean_inc_ref_cold(ptr noundef nonnull %79) #5
  br label %lean_inc.exit

lean_inc.exit:                                    ; preds = %87, %86, %84, %77
  br i1 %.not.i37, label %88, label %lean_dec.exit

88:                                               ; preds = %lean_inc.exit
  %89 = load i32, ptr %2, align 4, !tbaa !4
  %90 = icmp sgt i32 %89, 1
  br i1 %90, label %91, label %93, !prof !9

91:                                               ; preds = %88
  %92 = add nsw i32 %89, -1
  store i32 %92, ptr %2, align 4, !tbaa !4
  br label %lean_dec.exit

93:                                               ; preds = %88
  %.not.i35 = icmp eq i32 %89, 0
  br i1 %.not.i35, label %lean_dec.exit, label %94

94:                                               ; preds = %93
  tail call void @lean_dec_ref_cold(ptr noundef nonnull %2) #5
  br label %lean_dec.exit

lean_dec.exit:                                    ; preds = %94, %93, %91, %lean_inc.exit
  %95 = tail call ptr @l_Lean_Loop_forIn_loop___rarg(ptr noundef %0, ptr noundef %1, ptr noundef %79)
  br label %96

96:                                               ; preds = %lean_dec.exit, %lean_dec.exit22
  %.0 = phi ptr [ %76, %lean_dec.exit22 ], [ %95, %lean_dec.exit ]
  ret ptr %.0
}